target datalayout = "e-m:e-p270:32:32-p271:32:32-p272:64:64-i64:64-i128:128-f80:128-n8:16:32:64-S128"
target triple = "x86_64-pc-linux-gnu"

%struct.stbhw_tile = type { i8, i8, i8, i8, i8, i8, [1 x i8] }

; Function Attrs: nounwind uwtable
define void @stbhw__draw_pixel(ptr noundef %0, i32 noundef %1, i32 noundef %2, i32 noundef %3, ptr noundef %4) #0 {
  %6 = alloca ptr, align 8
  %7 = alloca i32, align 4
  %8 = alloca i32, align 4
  %9 = alloca i32, align 4
  %10 = alloca ptr, align 8
  store ptr %0, ptr %6, align 8, !tbaa !3
  store i32 %1, ptr %7, align 4, !tbaa !10
  store i32 %2, ptr %8, align 4, !tbaa !10
  store i32 %3, ptr %9, align 4, !tbaa !10
  store ptr %4, ptr %10, align 8, !tbaa !3
  %11 = load ptr, ptr %6, align 8, !tbaa !3
  %12 = load i32, ptr %9, align 4, !tbaa !10
  %13 = load i32, ptr %7, align 4, !tbaa !10
  %14 = mul nsw i32 %12, %13
  %15 = sext i32 %14 to i64
  %16 = getelementptr inbounds i8, ptr %11, i64 %15
  %17 = load i32, ptr %8, align 4, !tbaa !10
  %18 = mul nsw i32 %17, 3
  %19 = sext i32 %18 to i64
  %20 = getelementptr inbounds i8, ptr %16, i64 %19
  %21 = load ptr, ptr %10, align 8, !tbaa !3
  call void @llvm.memcpy.p0.p0.i64(ptr align 1 %20, ptr align 1 %21, i64 3, i1 false)
  ret void
}

; Function Attrs: nounwind uwtable
define void @stbhw__draw_h_tile(ptr noundef %0, i32 noundef %1, i32 noundef %2, i32 noundef %3, i32 noundef %4, i32 noundef %5, ptr noundef %6, i32 noundef %7) #0 {
  %9 = alloca ptr, align 8
  %10 = alloca i32, align 4
  %11 = alloca i32, align 4
  %12 = alloca i32, align 4
  %13 = alloca i32, align 4
  %14 = alloca i32, align 4
  %15 = alloca ptr, align 8
  %16 = alloca i32, align 4
  %17 = alloca i32, align 4
  %18 = alloca i32, align 4
  store ptr %0, ptr %9, align 8, !tbaa !3
  store i32 %1, ptr %10, align 4, !tbaa !10
  store i32 %2, ptr %11, align 4, !tbaa !10
  store i32 %3, ptr %12, align 4, !tbaa !10
  store i32 %4, ptr %13, align 4, !tbaa !10
  store i32 %5, ptr %14, align 4, !tbaa !10
  store ptr %6, ptr %15, align 8, !tbaa !34
  store i32 %7, ptr %16, align 4, !tbaa !10
  call void @llvm.lifetime.start.p0(i64 4, ptr %17) #6
  call void @llvm.lifetime.start.p0(i64 4, ptr %18) #6
  store i32 0, ptr %18, align 4, !tbaa !10
  br label %19

19:                                               ; preds = %77, %8
  %20 = load i32, ptr %18, align 4, !tbaa !10
  %21 = load i32, ptr %16, align 4, !tbaa !10
  %22 = icmp slt i32 %20, %21
  br i1 %22, label %23, label %80

23:                                               ; preds = %19
  %24 = load i32, ptr %14, align 4, !tbaa !10
  %25 = load i32, ptr %18, align 4, !tbaa !10
  %26 = add nsw i32 %24, %25
  %27 = icmp sge i32 %26, 0
  br i1 %27, label %28, label %76

28:                                               ; preds = %23
  %29 = load i32, ptr %14, align 4, !tbaa !10
  %30 = load i32, ptr %18, align 4, !tbaa !10
  %31 = add nsw i32 %29, %30
  %32 = load i32, ptr %12, align 4, !tbaa !10
  %33 = icmp slt i32 %31, %32
  br i1 %33, label %34, label %76

34:                                               ; preds = %28
  store i32 0, ptr %17, align 4, !tbaa !10
  br label %35

35:                                               ; preds = %72, %34
  %36 = load i32, ptr %17, align 4, !tbaa !10
  %37 = load i32, ptr %16, align 4, !tbaa !10
  %38 = mul nsw i32 %37, 2
  %39 = icmp slt i32 %36, %38
  br i1 %39, label %40, label %75

40:                                               ; preds = %35
  %41 = load i32, ptr %13, align 4, !tbaa !10
  %42 = load i32, ptr %17, align 4, !tbaa !10
  %43 = add nsw i32 %41, %42
  %44 = icmp sge i32 %43, 0
  br i1 %44, label %45, label %71

45:                                               ; preds = %40
  %46 = load i32, ptr %13, align 4, !tbaa !10
  %47 = load i32, ptr %17, align 4, !tbaa !10
  %48 = add nsw i32 %46, %47
  %49 = load i32, ptr %11, align 4, !tbaa !10
  %50 = icmp slt i32 %48, %49
  br i1 %50, label %51, label %71

51:                                               ; preds = %45
  %52 = load ptr, ptr %9, align 8, !tbaa !3
  %53 = load i32, ptr %10, align 4, !tbaa !10
  %54 = load i32, ptr %13, align 4, !tbaa !10
  %55 = load i32, ptr %17, align 4, !tbaa !10
  %56 = add nsw i32 %54, %55
  %57 = load i32, ptr %14, align 4, !tbaa !10
  %58 = load i32, ptr %18, align 4, !tbaa !10
  %59 = add nsw i32 %57, %58
  %60 = load ptr, ptr %15, align 8, !tbaa !34
  %61 = getelementptr inbounds nuw %struct.stbhw_tile, ptr %60, i32 0, i32 6
  %62 = load i32, ptr %18, align 4, !tbaa !10
  %63 = load i32, ptr %16, align 4, !tbaa !10
  %64 = mul nsw i32 %62, %63
  %65 = mul nsw i32 %64, 2
  %66 = load i32, ptr %17, align 4, !tbaa !10
  %67 = add nsw i32 %65, %66
  %68 = mul nsw i32 %67, 3
  %69 = sext i32 %68 to i64
  %70 = getelementptr inbounds [1 x i8], ptr %61, i64 0, i64 %69
  call void @stbhw__draw_pixel(ptr noundef %52, i32 noundef %53, i32 noundef %56, i32 noundef %59, ptr noundef %70)
  br label %71

71:                                               ; preds = %51, %45, %40
  br label %72

72:                                               ; preds = %71
  %73 = load i32, ptr %17, align 4, !tbaa !10
  %74 = add nsw i32 %73, 1
  store i32 %74, ptr %17, align 4, !tbaa !10
  br label %35, !llvm.loop !58

75:                                               ; preds = %35
  br label %76

76:                                               ; preds = %75, %28, %23
  br label %77

77:                                               ; preds = %76
  %78 = load i32, ptr %18, align 4, !tbaa !10
  %79 = add nsw i32 %78, 1
  store i32 %79, ptr %18, align 4, !tbaa !10
  br label %19, !llvm.loop !59

80:                                               ; preds = %19
  call void @llvm.lifetime.end.p0(i64 4, ptr %18) #6
  call void @llvm.lifetime.end.p0(i64 4, ptr %17) #6
  ret void
}