; Function Attrs: nofree norecurse nosync nounwind memory(argmem: readwrite) uwtable
define void @stbhw__draw_h_tile(ptr noundef writeonly captures(none) %0, i32 noundef %1, i32 noundef %2, i32 noundef %3, i32 noundef %4, i32 noundef %5, ptr noundef readonly captures(none) %6, i32 noundef %7) local_unnamed_addr #6 {
  %factor.op.mul31 = shl i32 %7, 1
  %9 = icmp sgt i32 %7, 0
  br i1 %9, label %.lr.ph33.split.us.preheader, label %._crit_edge

.lr.ph33.split.us.preheader:                      ; preds = %8
  %10 = getelementptr inbounds nuw i8, ptr %6, i64 6
  %11 = sext i32 %4 to i64
  %12 = sext i32 %2 to i64
  %13 = sext i32 %5 to i64
  %14 = sext i32 %3 to i64
  %15 = sext i32 %1 to i64
  %wide.trip.count39 = zext nneg i32 %7 to i64
  %wide.trip.count = zext i32 %factor.op.mul31 to i64
  br label %.lr.ph33.split.us

.lr.ph33.split.us:                                ; preds = %.lr.ph33.split.us.preheader, %..loopexit_crit_edge.us
  %indvars.iv36 = phi i64 [ 0, %.lr.ph33.split.us.preheader ], [ %indvars.iv.next37, %..loopexit_crit_edge.us ]
  %16 = add nsw i64 %indvars.iv36, %13
  %17 = icmp sgt i64 %16, -1
  %18 = icmp slt i64 %16, %14
  %or.cond.us = and i1 %17, %18
  br i1 %or.cond.us, label %.preheader.us, label %..loopexit_crit_edge.us

..loopexit_crit_edge.us:                          ; preds = %29, %.lr.ph33.split.us
  %indvars.iv.next37 = add nuw nsw i64 %indvars.iv36, 1
  %exitcond40.not = icmp eq i64 %indvars.iv.next37, %wide.trip.count39
  br i1 %exitcond40.not, label %._crit_edge, label %.lr.ph33.split.us, !llvm.loop !54

19:                                               ; preds = %.preheader.us, %29
  %indvars.iv = phi i64 [ 0, %.preheader.us ], [ %indvars.iv.next, %29 ]
  %20 = add nsw i64 %indvars.iv, %11
  %21 = icmp sgt i64 %20, -1
  %22 = icmp slt i64 %20, %12
  %or.cond29.us = and i1 %21, %22
  br i1 %or.cond29.us, label %23, label %29

23:                                               ; preds = %19
  %24 = add nsw i64 %indvars.iv, %33
  %25 = mul nsw i64 %24, 3
  %26 = getelementptr inbounds [1 x i8], ptr %10, i64 0, i64 %25
  %27 = mul nuw nsw i64 %20, 3
  %28 = getelementptr inbounds nuw i8, ptr %32, i64 %27
  tail call void @llvm.memcpy.p0.p0.i64(ptr noundef nonnull align 1 dereferenceable(3) %28, ptr noundef nonnull readonly align 1 dereferenceable(3) %26, i64 3, i1 false)
  br label %29

29:                                               ; preds = %23, %19
  %indvars.iv.next = add nuw nsw i64 %indvars.iv, 1
  %exitcond.not = icmp eq i64 %indvars.iv.next, %wide.trip.count
  br i1 %exitcond.not, label %..loopexit_crit_edge.us, label %19, !llvm.loop !55

.preheader.us:                                    ; preds = %.lr.ph33.split.us
  %30 = trunc nuw nsw i64 %indvars.iv36 to i32
  %factor.op.mul.reass.us = mul i32 %factor.op.mul31, %30
  %31 = mul nsw i64 %16, %15
  %32 = getelementptr inbounds i8, ptr %0, i64 %31
  %33 = sext i32 %factor.op.mul.reass.us to i64
  br label %19

._crit_edge:                                      ; preds = %..loopexit_crit_edge.us, %8
  ret void
}